target datalayout = "e-m:e-p270:32:32-p271:32:32-p272:64:64-i64:64-i128:128-f80:128-n8:16:32:64-S128"
target triple = "x86_64-pc-linux-gnu"

%"class.Imath_2_5::Vec2.6" = type { float, float }
%"class.cv::ExrDecoder" = type { %"class.cv::BaseImageDecoder", ptr, i32, %"class.Imath_2_5::Box", i8, ptr, ptr, ptr, ptr, %"struct.Imf_2_5::Chromaticities", i32, i8, i8, i8, i8 }
%"class.cv::BaseImageDecoder" = type { ptr, i32, i32, i32, i32, %"class.std::__cxx11::basic_string", %"class.std::__cxx11::basic_string", %"class.cv::Mat", i8, i8, [6 x i8], %"class.cv::ExifReader" }
%"class.std::__cxx11::basic_string" = type { %"struct.std::__cxx11::basic_string<char>::_Alloc_hider", i64, %union.anon }
%"struct.std::__cxx11::basic_string<char>::_Alloc_hider" = type { ptr }
%union.anon = type { i64, [8 x i8] }
%"class.cv::Mat" = type { i32, i32, i32, i32, ptr, ptr, ptr, ptr, ptr, ptr, %"struct.cv::MatSize", %"struct.cv::MatStep" }
%"struct.cv::MatSize" = type { ptr }
%"struct.cv::MatStep" = type { ptr, [2 x i64] }
%"class.cv::ExifReader" = type <{ %"class.std::vector", %"class.std::map", i32, [4 x i8] }>
%"class.std::vector" = type { %"struct.std::_Vector_base" }
%"struct.std::_Vector_base" = type { %"struct.std::_Vector_base<unsigned char, std::allocator<unsigned char>>::_Vector_impl" }
%"struct.std::_Vector_base<unsigned char, std::allocator<unsigned char>>::_Vector_impl" = type { %"struct.std::_Vector_base<unsigned char, std::allocator<unsigned char>>::_Vector_impl_data" }
%"struct.std::_Vector_base<unsigned char, std::allocator<unsigned char>>::_Vector_impl_data" = type { ptr, ptr, ptr }
%"class.std::map" = type { %"class.std::_Rb_tree" }
%"class.std::_Rb_tree" = type { %"struct.std::_Rb_tree<int, std::pair<const int, cv::ExifEntry_t>, std::_Select1st<std::pair<const int, cv::ExifEntry_t>>, std::less<int>>::_Rb_tree_impl" }
%"struct.std::_Rb_tree<int, std::pair<const int, cv::ExifEntry_t>, std::_Select1st<std::pair<const int, cv::ExifEntry_t>>, std::less<int>>::_Rb_tree_impl" = type { %"struct.std::_Rb_tree_key_compare", %"struct.std::_Rb_tree_header" }
%"struct.std::_Rb_tree_key_compare" = type { %"struct.std::less" }
%"struct.std::less" = type { i8 }
%"struct.std::_Rb_tree_header" = type { %"struct.std::_Rb_tree_node_base", i64 }
%"struct.std::_Rb_tree_node_base" = type { i32, ptr, ptr, ptr }
%"class.Imath_2_5::Box" = type { %"class.Imath_2_5::Vec2", %"class.Imath_2_5::Vec2" }
%"class.Imath_2_5::Vec2" = type { i32, i32 }
%"struct.Imf_2_5::Chromaticities" = type { %"class.Imath_2_5::Vec2.6", %"class.Imath_2_5::Vec2.6", %"class.Imath_2_5::Vec2.6", %"class.Imath_2_5::Vec2.6" }

; Function Attrs: mustprogress uwtable
define internal noundef i32 @_ZL7cvRoundd(double noundef %0) #12 {
  %2 = alloca <2 x double>, align 16
  %3 = alloca double, align 8
  %4 = alloca <2 x double>, align 16
  %5 = alloca double, align 8
  %6 = alloca <2 x double>, align 16
  store double %0, ptr %5, align 8
  %7 = load double, ptr %5, align 8
  store double %7, ptr %3, align 8
  %8 = load double, ptr %3, align 8
  %9 = insertelement <2 x double> poison, double %8, i32 0
  %10 = insertelement <2 x double> %9, double 0.000000e+00, i32 1
  store <2 x double> %10, ptr %4, align 16
  %11 = load <2 x double>, ptr %4, align 16
  store <2 x double> %11, ptr %6, align 16
  %12 = load <2 x double>, ptr %6, align 16
  store <2 x double> %12, ptr %2, align 16
  %13 = load <2 x double>, ptr %2, align 16
  %14 = call noundef i32 @llvm.x86.sse2.cvtsd2si(<2 x double> %13)
  ret i32 %14
}

; Function Attrs: mustprogress nounwind uwtable
define linkonce_odr hidden noundef nonnull align 4 dereferenceable(4) ptr @_ZN9Imath_2_54Vec2IfEixEi(ptr noundef nonnull align 4 dereferenceable(8) %0, i32 noundef %1) #5 comdat align 2 {
  %3 = alloca ptr, align 8
  %4 = alloca i32, align 4
  store ptr %0, ptr %3, align 8
  store i32 %1, ptr %4, align 4
  %5 = load ptr, ptr %3, align 8
  %6 = getelementptr inbounds %"class.Imath_2_5::Vec2.6", ptr %5, i32 0, i32 0
  %7 = load i32, ptr %4, align 4
  %8 = sext i32 %7 to i64
  %9 = getelementptr inbounds float, ptr %6, i64 %8
  ret ptr %9
}

; Function Attrs: mustprogress uwtable
define hidden void @_ZN2cv10ExrDecoder11ChromaToRGBEPfiii(ptr noundef nonnull align 8 dereferenceable(376) %0, ptr noundef %1, i32 noundef %2, i32 noundef %3, i32 noundef %4) #4 align 2 {
  %6 = alloca ptr, align 8
  %7 = alloca ptr, align 8
  %8 = alloca i32, align 4
  %9 = alloca i32, align 4
  %10 = alloca i32, align 4
  %11 = alloca i32, align 4
  %12 = alloca i32, align 4
  %13 = alloca double, align 8
  %14 = alloca double, align 8
  %15 = alloca double, align 8
  %16 = alloca i32, align 4
  store ptr %0, ptr %6, align 8
  store ptr %1, ptr %7, align 8
  store i32 %2, ptr %8, align 4
  store i32 %3, ptr %9, align 4
  store i32 %4, ptr %10, align 4
  %17 = load ptr, ptr %6, align 8
  store i32 0, ptr %11, align 4
  br label %18

18:                                               ; preds = %250, %5
  %19 = load i32, ptr %11, align 4
  %20 = load i32, ptr %8, align 4
  %21 = icmp slt i32 %19, %20
  br i1 %21, label %22, label %253

22:                                               ; preds = %18
  store i32 0, ptr %12, align 4
  br label %23

23:                                               ; preds = %246, %22
  %24 = load i32, ptr %12, align 4
  %25 = getelementptr inbounds %"class.cv::BaseImageDecoder", ptr %17, i32 0, i32 1
  %26 = load i32, ptr %25, align 8
  %27 = icmp slt i32 %24, %26
  br i1 %27, label %28, label %249

28:                                               ; preds = %23
  %29 = getelementptr inbounds %"class.cv::ExrDecoder", ptr %17, i32 0, i32 2
  %30 = load i32, ptr %29, align 8
  %31 = icmp eq i32 %30, 2
  br i1 %31, label %32, label %71

32:                                               ; preds = %28
  %33 = load ptr, ptr %7, align 8
  %34 = load i32, ptr %11, align 4
  %35 = load i32, ptr %10, align 4
  %36 = mul nsw i32 %34, %35
  %37 = load i32, ptr %12, align 4
  %38 = load i32, ptr %9, align 4
  %39 = mul nsw i32 %37, %38
  %40 = add nsw i32 %36, %39
  %41 = sext i32 %40 to i64
  %42 = getelementptr inbounds float, ptr %33, i64 %41
  %43 = load float, ptr %42, align 4
  %44 = fpext float %43 to double
  store double %44, ptr %13, align 8
  %45 = load ptr, ptr %7, align 8
  %46 = load i32, ptr %11, align 4
  %47 = load i32, ptr %10, align 4
  %48 = mul nsw i32 %46, %47
  %49 = load i32, ptr %12, align 4
  %50 = load i32, ptr %9, align 4
  %51 = mul nsw i32 %49, %50
  %52 = add nsw i32 %48, %51
  %53 = add nsw i32 %52, 1
  %54 = sext i32 %53 to i64
  %55 = getelementptr inbounds float, ptr %45, i64 %54
  %56 = load float, ptr %55, align 4
  %57 = fpext float %56 to double
  store double %57, ptr %14, align 8
  %58 = load ptr, ptr %7, align 8
  %59 = load i32, ptr %11, align 4
  %60 = load i32, ptr %10, align 4
  %61 = mul nsw i32 %59, %60
  %62 = load i32, ptr %12, align 4
  %63 = load i32, ptr %9, align 4
  %64 = mul nsw i32 %62, %63
  %65 = add nsw i32 %61, %64
  %66 = add nsw i32 %65, 2
  %67 = sext i32 %66 to i64
  %68 = getelementptr inbounds float, ptr %58, i64 %67
  %69 = load float, ptr %68, align 4
  %70 = fpext float %69 to double
  store double %70, ptr %15, align 8
  br label %110

71:                                               ; preds = %28
  %72 = load ptr, ptr %7, align 8
  %73 = load i32, ptr %11, align 4
  %74 = load i32, ptr %10, align 4
  %75 = mul nsw i32 %73, %74
  %76 = load i32, ptr %12, align 4
  %77 = load i32, ptr %9, align 4
  %78 = mul nsw i32 %76, %77
  %79 = add nsw i32 %75, %78
  %80 = sext i32 %79 to i64
  %81 = getelementptr inbounds i32, ptr %72, i64 %80
  %82 = load i32, ptr %81, align 4
  %83 = uitofp i32 %82 to double
  store double %83, ptr %13, align 8
  %84 = load ptr, ptr %7, align 8
  %85 = load i32, ptr %11, align 4
  %86 = load i32, ptr %10, align 4
  %87 = mul nsw i32 %85, %86
  %88 = load i32, ptr %12, align 4
  %89 = load i32, ptr %9, align 4
  %90 = mul nsw i32 %88, %89
  %91 = add nsw i32 %87, %90
  %92 = add nsw i32 %91, 1
  %93 = sext i32 %92 to i64
  %94 = getelementptr inbounds i32, ptr %84, i64 %93
  %95 = load i32, ptr %94, align 4
  %96 = uitofp i32 %95 to double
  store double %96, ptr %14, align 8
  %97 = load ptr, ptr %7, align 8
  %98 = load i32, ptr %11, align 4
  %99 = load i32, ptr %10, align 4
  %100 = mul nsw i32 %98, %99
  %101 = load i32, ptr %12, align 4
  %102 = load i32, ptr %9, align 4
  %103 = mul nsw i32 %101, %102
  %104 = add nsw i32 %100, %103
  %105 = add nsw i32 %104, 2
  %106 = sext i32 %105 to i64
  %107 = getelementptr inbounds i32, ptr %97, i64 %106
  %108 = load i32, ptr %107, align 4
  %109 = uitofp i32 %108 to double
  store double %109, ptr %15, align 8
  br label %110

110:                                              ; preds = %71, %32
  %111 = load double, ptr %15, align 8
  %112 = fadd double %111, 1.000000e+00
  %113 = load double, ptr %14, align 8
  %114 = fmul double %112, %113
  store double %114, ptr %15, align 8
  %115 = load double, ptr %13, align 8
  %116 = fadd double %115, 1.000000e+00
  %117 = load double, ptr %14, align 8
  %118 = fmul double %116, %117
  store double %118, ptr %13, align 8
  %119 = load double, ptr %14, align 8
  %120 = load double, ptr %13, align 8
  %121 = getelementptr inbounds %"class.cv::ExrDecoder", ptr %17, i32 0, i32 9
  %122 = getelementptr inbounds %"struct.Imf_2_5::Chromaticities", ptr %121, i32 0, i32 2
  %123 = call noundef nonnull align 4 dereferenceable(4) ptr @_ZN9Imath_2_54Vec2IfEixEi(ptr noundef nonnull align 4 dereferenceable(8) %122, i32 noundef 1)
  %124 = load float, ptr %123, align 4
  %125 = fpext float %124 to double
  %126 = fneg double %120
  %127 = call double @llvm.fmuladd.f64(double %126, double %125, double %119)
  %128 = load double, ptr %15, align 8
  %129 = getelementptr inbounds %"class.cv::ExrDecoder", ptr %17, i32 0, i32 9
  %130 = getelementptr inbounds %"struct.Imf_2_5::Chromaticities", ptr %129, i32 0, i32 0
  %131 = call noundef nonnull align 4 dereferenceable(4) ptr @_ZN9Imath_2_54Vec2IfEixEi(ptr noundef nonnull align 4 dereferenceable(8) %130, i32 noundef 1)
  %132 = load float, ptr %131, align 4
  %133 = fpext float %132 to double
  %134 = fneg double %128
  %135 = call double @llvm.fmuladd.f64(double %134, double %133, double %127)
  %136 = getelementptr inbounds %"class.cv::ExrDecoder", ptr %17, i32 0, i32 9
  %137 = getelementptr inbounds %"struct.Imf_2_5::Chromaticities", ptr %136, i32 0, i32 1
  %138 = call noundef nonnull align 4 dereferenceable(4) ptr @_ZN9Imath_2_54Vec2IfEixEi(ptr noundef nonnull align 4 dereferenceable(8) %137, i32 noundef 1)
  %139 = load float, ptr %138, align 4
  %140 = fpext float %139 to double
  %141 = fdiv double %135, %140
  store double %141, ptr %14, align 8
  %142 = getelementptr inbounds %"class.cv::ExrDecoder", ptr %17, i32 0, i32 2
  %143 = load i32, ptr %142, align 8
  %144 = icmp eq i32 %143, 2
  br i1 %144, label %145, label %184

145:                                              ; preds = %110
  %146 = load double, ptr %15, align 8
  %147 = fptrunc double %146 to float
  %148 = load ptr, ptr %7, align 8
  %149 = load i32, ptr %11, align 4
  %150 = load i32, ptr %10, align 4
  %151 = mul nsw i32 %149, %150
  %152 = load i32, ptr %12, align 4
  %153 = load i32, ptr %9, align 4
  %154 = mul nsw i32 %152, %153
  %155 = add nsw i32 %151, %154
  %156 = sext i32 %155 to i64
  %157 = getelementptr inbounds float, ptr %148, i64 %156
  store float %147, ptr %157, align 4
  %158 = load double, ptr %14, align 8
  %159 = fptrunc double %158 to float
  %160 = load ptr, ptr %7, align 8
  %161 = load i32, ptr %11, align 4
  %162 = load i32, ptr %10, align 4
  %163 = mul nsw i32 %161, %162
  %164 = load i32, ptr %12, align 4
  %165 = load i32, ptr %9, align 4
  %166 = mul nsw i32 %164, %165
  %167 = add nsw i32 %163, %166
  %168 = add nsw i32 %167, 1
  %169 = sext i32 %168 to i64
  %170 = getelementptr inbounds float, ptr %160, i64 %169
  store float %159, ptr %170, align 4
  %171 = load double, ptr %13, align 8
  %172 = fptrunc double %171 to float
  %173 = load ptr, ptr %7, align 8
  %174 = load i32, ptr %11, align 4
  %175 = load i32, ptr %10, align 4
  %176 = mul nsw i32 %174, %175
  %177 = load i32, ptr %12, align 4
  %178 = load i32, ptr %9, align 4
  %179 = mul nsw i32 %177, %178
  %180 = add nsw i32 %176, %179
  %181 = add nsw i32 %180, 2
  %182 = sext i32 %181 to i64
  %183 = getelementptr inbounds float, ptr %173, i64 %182
  store float %172, ptr %183, align 4
  br label %245

184:                                              ; preds = %110
  %185 = load double, ptr %15, align 8
  %186 = call noundef i32 @_ZL7cvRoundd(double noundef %185)
  store i32 %186, ptr %16, align 4
  %187 = load i32, ptr %16, align 4
  %188 = icmp slt i32 %187, 0
  br i1 %188, label %189, label %190

189:                                              ; preds = %184
  br label %192

190:                                              ; preds = %184
  %191 = load i32, ptr %16, align 4
  br label %192

192:                                              ; preds = %190, %189
  %193 = phi i32 [ 0, %189 ], [ %191, %190 ]
  %194 = load ptr, ptr %7, align 8
  %195 = load i32, ptr %11, align 4
  %196 = load i32, ptr %10, align 4
  %197 = mul nsw i32 %195, %196
  %198 = load i32, ptr %12, align 4
  %199 = load i32, ptr %9, align 4
  %200 = mul nsw i32 %198, %199
  %201 = add nsw i32 %197, %200
  %202 = add nsw i32 %201, 0
  %203 = sext i32 %202 to i64
  %204 = getelementptr inbounds i32, ptr %194, i64 %203
  store i32 %193, ptr %204, align 4
  %205 = load double, ptr %14, align 8
  %206 = call noundef i32 @_ZL7cvRoundd(double noundef %205)
  store i32 %206, ptr %16, align 4
  %207 = load i32, ptr %16, align 4
  %208 = icmp slt i32 %207, 0
  br i1 %208, label %209, label %210

209:                                              ; preds = %192
  br label %212

210:                                              ; preds = %192
  %211 = load i32, ptr %16, align 4
  br label %212

212:                                              ; preds = %210, %209
  %213 = phi i32 [ 0, %209 ], [ %211, %210 ]
  %214 = load ptr, ptr %7, align 8
  %215 = load i32, ptr %11, align 4
  %216 = load i32, ptr %10, align 4
  %217 = mul nsw i32 %215, %216
  %218 = load i32, ptr %12, align 4
  %219 = load i32, ptr %9, align 4
  %220 = mul nsw i32 %218, %219
  %221 = add nsw i32 %217, %220
  %222 = add nsw i32 %221, 1
  %223 = sext i32 %222 to i64
  %224 = getelementptr inbounds i32, ptr %214, i64 %223
  store i32 %213, ptr %224, align 4
  %225 = load double, ptr %13, align 8
  %226 = call noundef i32 @_ZL7cvRoundd(double noundef %225)
  store i32 %226, ptr %16, align 4
  %227 = load i32, ptr %16, align 4
  %228 = icmp slt i32 %227, 0
  br i1 %228, label %229, label %230

229:                                              ; preds = %212
  br label %232

230:                                              ; preds = %212
  %231 = load i32, ptr %16, align 4
  br label %232

232:                                              ; preds = %230, %229
  %233 = phi i32 [ 0, %229 ], [ %231, %230 ]
  %234 = load ptr, ptr %7, align 8
  %235 = load i32, ptr %11, align 4
  %236 = load i32, ptr %10, align 4
  %237 = mul nsw i32 %235, %236
  %238 = load i32, ptr %12, align 4
  %239 = load i32, ptr %9, align 4
  %240 = mul nsw i32 %238, %239
  %241 = add nsw i32 %237, %240
  %242 = add nsw i32 %241, 2
  %243 = sext i32 %242 to i64
  %244 = getelementptr inbounds i32, ptr %234, i64 %243
  store i32 %233, ptr %244, align 4
  br label %245

245:                                              ; preds = %232, %145
  br label %246

246:                                              ; preds = %245
  %247 = load i32, ptr %12, align 4
  %248 = add nsw i32 %247, 1
  store i32 %248, ptr %12, align 4
  br label %23, !llvm.loop !14

249:                                              ; preds = %23
  br label %250

250:                                              ; preds = %249
  %251 = load i32, ptr %11, align 4
  %252 = add nsw i32 %251, 1
  store i32 %252, ptr %11, align 4
  br label %18, !llvm.loop !15

253:                                              ; preds = %18
  ret void
}